target datalayout = "e-m:e-p270:32:32-p271:32:32-p272:64:64-i64:64-i128:128-f80:128-n8:16:32:64-S128"
target triple = "x86_64-pc-linux-gnu"

@_ZZN32pxrInternal_v0_24__pxrReserved__L28_FindInstanceNamePlaceholderERKNSt7__cxx1112basic_stringIcSt11char_traitsIcESaIcEEEE15placeholderSize = internal global i64 0, align 8
@_ZGVZN32pxrInternal_v0_24__pxrReserved__L28_FindInstanceNamePlaceholderERKNSt7__cxx1112basic_stringIcSt11char_traitsIcESaIcEEEE15placeholderSize = internal global i64 0, align 8

; Function Attrs: mustprogress uwtable
define internal noundef i64 @_ZN32pxrInternal_v0_24__pxrReserved__L28_FindInstanceNamePlaceholderERKNSt7__cxx1112basic_stringIcSt11char_traitsIcESaIcEEE(ptr noundef nonnull align 8 dereferenceable(32) %0) #0 personality ptr @__gxx_personality_v0 {
  %2 = alloca i64, align 8
  %3 = alloca ptr, align 8
  %4 = alloca ptr, align 8
  %5 = alloca i32, align 4
  %6 = alloca i64, align 8
  %7 = alloca i64, align 8
  store ptr %0, ptr %3, align 8
  %8 = load atomic i8, ptr @_ZGVZN32pxrInternal_v0_24__pxrReserved__L28_FindInstanceNamePlaceholderERKNSt7__cxx1112basic_stringIcSt11char_traitsIcESaIcEEEE15placeholderSize acquire, align 8
  %9 = icmp eq i8 %8, 0
  br i1 %9, label %10, label %17, !prof !9

10:                                               ; preds = %1
  %11 = call i32 @__cxa_guard_acquire(ptr @_ZGVZN32pxrInternal_v0_24__pxrReserved__L28_FindInstanceNamePlaceholderERKNSt7__cxx1112basic_stringIcSt11char_traitsIcESaIcEEEE15placeholderSize) #7
  %12 = icmp ne i32 %11, 0
  br i1 %12, label %13, label %17

13:                                               ; preds = %10
  %14 = invoke noundef nonnull align 8 dereferenceable(32) ptr @_ZN32pxrInternal_v0_24__pxrReserved__L27_GetInstanceNamePlaceholderB5cxx11Ev()
          to label %15 unwind label %32

15:                                               ; preds = %13
  %16 = call noundef i64 @_ZNKSt7__cxx1112basic_stringIcSt11char_traitsIcESaIcEE4sizeEv(ptr noundef nonnull align 8 dereferenceable(32) %14) #7
  store i64 %16, ptr @_ZZN32pxrInternal_v0_24__pxrReserved__L28_FindInstanceNamePlaceholderERKNSt7__cxx1112basic_stringIcSt11char_traitsIcESaIcEEEE15placeholderSize, align 8
  call void @__cxa_guard_release(ptr @_ZGVZN32pxrInternal_v0_24__pxrReserved__L28_FindInstanceNamePlaceholderERKNSt7__cxx1112basic_stringIcSt11char_traitsIcESaIcEEEE15placeholderSize) #7
  br label %17

17:                                               ; preds = %15, %10, %1
  store i64 0, ptr %6, align 8
  br label %18

18:                                               ; preds = %51, %17
  %19 = load i64, ptr %6, align 8
  %20 = load ptr, ptr %3, align 8
  %21 = call noundef i64 @_ZNKSt7__cxx1112basic_stringIcSt11char_traitsIcESaIcEE4sizeEv(ptr noundef nonnull align 8 dereferenceable(32) %20) #7
  %22 = icmp ult i64 %19, %21
  br i1 %22, label %23, label %54

23:                                               ; preds = %18
  %24 = load ptr, ptr %3, align 8
  %25 = load i64, ptr %6, align 8
  %26 = call noundef i64 @_ZNKSt7__cxx1112basic_stringIcSt11char_traitsIcESaIcEE4findEcm(ptr noundef nonnull align 8 dereferenceable(32) %24, i8 noundef signext 58, i64 noundef %25) #7
  store i64 %26, ptr %7, align 8
  %27 = load i64, ptr %7, align 8
  %28 = icmp eq i64 %27, -1
  br i1 %28, label %29, label %36

29:                                               ; preds = %23
  %30 = load ptr, ptr %3, align 8
  %31 = call noundef i64 @_ZNKSt7__cxx1112basic_stringIcSt11char_traitsIcESaIcEE4sizeEv(ptr noundef nonnull align 8 dereferenceable(32) %30) #7
  store i64 %31, ptr %7, align 8
  br label %36

32:                                               ; preds = %13
  %33 = landingpad { ptr, i32 }
          cleanup
  %34 = extractvalue { ptr, i32 } %33, 0
  store ptr %34, ptr %4, align 8
  %35 = extractvalue { ptr, i32 } %33, 1
  store i32 %35, ptr %5, align 4
  call void @__cxa_guard_abort(ptr @_ZGVZN32pxrInternal_v0_24__pxrReserved__L28_FindInstanceNamePlaceholderERKNSt7__cxx1112basic_stringIcSt11char_traitsIcESaIcEEEE15placeholderSize) #7
  br label %57

36:                                               ; preds = %29, %23
  %37 = load i64, ptr %7, align 8
  %38 = load i64, ptr %6, align 8
  %39 = sub i64 %37, %38
  %40 = load i64, ptr @_ZZN32pxrInternal_v0_24__pxrReserved__L28_FindInstanceNamePlaceholderERKNSt7__cxx1112basic_stringIcSt11char_traitsIcESaIcEEEE15placeholderSize, align 8
  %41 = icmp eq i64 %39, %40
  br i1 %41, label %42, label %51

42:                                               ; preds = %36
  %43 = load ptr, ptr %3, align 8
  %44 = load i64, ptr %6, align 8
  %45 = load i64, ptr @_ZZN32pxrInternal_v0_24__pxrReserved__L28_FindInstanceNamePlaceholderERKNSt7__cxx1112basic_stringIcSt11char_traitsIcESaIcEEEE15placeholderSize, align 8
  %46 = call noundef nonnull align 8 dereferenceable(32) ptr @_ZN32pxrInternal_v0_24__pxrReserved__L27_GetInstanceNamePlaceholderB5cxx11Ev()
  %47 = call noundef i32 @_ZNKSt7__cxx1112basic_stringIcSt11char_traitsIcESaIcEE7compareEmmRKS4_(ptr noundef nonnull align 8 dereferenceable(32) %43, i64 noundef %44, i64 noundef %45, ptr noundef nonnull align 8 dereferenceable(32) %46)
  %48 = icmp eq i32 %47, 0
  br i1 %48, label %49, label %51

49:                                               ; preds = %42
  %50 = load i64, ptr %6, align 8
  store i64 %50, ptr %2, align 8
  br label %55

51:                                               ; preds = %42, %36
  %52 = load i64, ptr %7, align 8
  %53 = add i64 %52, 1
  store i64 %53, ptr %6, align 8
  br label %18, !llvm.loop !10

54:                                               ; preds = %18
  store i64 -1, ptr %2, align 8
  br label %55

55:                                               ; preds = %54, %49
  %56 = load i64, ptr %2, align 8
  ret i64 %56

57:                                               ; preds = %32
  %58 = load ptr, ptr %4, align 8
  %59 = load i32, ptr %5, align 4
  %60 = insertvalue { ptr, i32 } poison, ptr %58, 0
  %61 = insertvalue { ptr, i32 } %60, i32 %59, 1
  resume { ptr, i32 } %61
}