; Function Attrs: mustprogress uwtable
define internal fastcc noundef i64 @_ZN32pxrInternal_v0_24__pxrReserved__L28_FindInstanceNamePlaceholderERKNSt7__cxx1112basic_stringIcSt11char_traitsIcESaIcEEE(ptr noundef nonnull align 8 dereferenceable(32) %0) unnamed_addr #0 personality ptr @__gxx_personality_v0 {
  %2 = load atomic i8, ptr @_ZGVZN32pxrInternal_v0_24__pxrReserved__L28_FindInstanceNamePlaceholderERKNSt7__cxx1112basic_stringIcSt11char_traitsIcESaIcEEEE15placeholderSize acquire, align 8
  %3 = icmp eq i8 %2, 0
  br i1 %3, label %4, label %9, !prof !19

4:                                                ; preds = %1
  %5 = tail call i32 @__cxa_guard_acquire(ptr nonnull @_ZGVZN32pxrInternal_v0_24__pxrReserved__L28_FindInstanceNamePlaceholderERKNSt7__cxx1112basic_stringIcSt11char_traitsIcESaIcEEEE15placeholderSize) #21
  %.not = icmp eq i32 %5, 0
  br i1 %.not, label %9, label %6

6:                                                ; preds = %4
  invoke fastcc void @_ZN32pxrInternal_v0_24__pxrReserved__L27_GetInstanceNamePlaceholderB5cxx11Ev()
          to label %7 unwind label %15

7:                                                ; preds = %6
  %8 = tail call noundef i64 @_ZNKSt7__cxx1112basic_stringIcSt11char_traitsIcESaIcEE4sizeEv(ptr noundef nonnull align 8 dereferenceable(32) @_ZZN32pxrInternal_v0_24__pxrReserved__L27_GetInstanceNamePlaceholderB5cxx11EvE23instanceNamePlaceHolderB5cxx11) #21
  store i64 %8, ptr @_ZZN32pxrInternal_v0_24__pxrReserved__L28_FindInstanceNamePlaceholderERKNSt7__cxx1112basic_stringIcSt11char_traitsIcESaIcEEEE15placeholderSize, align 8
  tail call void @__cxa_guard_release(ptr nonnull @_ZGVZN32pxrInternal_v0_24__pxrReserved__L28_FindInstanceNamePlaceholderERKNSt7__cxx1112basic_stringIcSt11char_traitsIcESaIcEEEE15placeholderSize) #21
  br label %9

9:                                                ; preds = %7, %4, %1
  %10 = tail call noundef i64 @_ZNKSt7__cxx1112basic_stringIcSt11char_traitsIcESaIcEE4sizeEv(ptr noundef nonnull align 8 dereferenceable(32) %0) #21
  %.not21 = icmp eq i64 %10, 0
  br i1 %.not21, label %._crit_edge, label %.lr.ph

.lr.ph:                                           ; preds = %9, %24
  %.01418 = phi i64 [ %25, %24 ], [ 0, %9 ]
  %11 = tail call noundef i64 @_ZNKSt7__cxx1112basic_stringIcSt11char_traitsIcESaIcEE4findEcm(ptr noundef nonnull align 8 dereferenceable(32) %0, i8 noundef signext 58, i64 noundef %.01418) #21
  %12 = icmp eq i64 %11, -1
  br i1 %12, label %13, label %17

13:                                               ; preds = %.lr.ph
  %14 = tail call noundef i64 @_ZNKSt7__cxx1112basic_stringIcSt11char_traitsIcESaIcEE4sizeEv(ptr noundef nonnull align 8 dereferenceable(32) %0) #21
  br label %17

15:                                               ; preds = %6
  %16 = landingpad { ptr, i32 }
          cleanup
  tail call void @__cxa_guard_abort(ptr nonnull @_ZGVZN32pxrInternal_v0_24__pxrReserved__L28_FindInstanceNamePlaceholderERKNSt7__cxx1112basic_stringIcSt11char_traitsIcESaIcEEEE15placeholderSize) #21
  resume { ptr, i32 } %16

17:                                               ; preds = %13, %.lr.ph
  %.0 = phi i64 [ %14, %13 ], [ %11, %.lr.ph ]
  %18 = sub i64 %.0, %.01418
  %19 = load i64, ptr @_ZZN32pxrInternal_v0_24__pxrReserved__L28_FindInstanceNamePlaceholderERKNSt7__cxx1112basic_stringIcSt11char_traitsIcESaIcEEEE15placeholderSize, align 8
  %20 = icmp eq i64 %18, %19
  br i1 %20, label %21, label %24

21:                                               ; preds = %17
  tail call fastcc void @_ZN32pxrInternal_v0_24__pxrReserved__L27_GetInstanceNamePlaceholderB5cxx11Ev()
  %22 = tail call noundef i32 @_ZNKSt7__cxx1112basic_stringIcSt11char_traitsIcESaIcEE7compareEmmRKS4_(ptr noundef nonnull align 8 dereferenceable(32) %0, i64 noundef %.01418, i64 noundef %18, ptr noundef nonnull align 8 dereferenceable(32) @_ZZN32pxrInternal_v0_24__pxrReserved__L27_GetInstanceNamePlaceholderB5cxx11EvE23instanceNamePlaceHolderB5cxx11)
  %23 = icmp eq i32 %22, 0
  br i1 %23, label %._crit_edge, label %24

24:                                               ; preds = %21, %17
  %25 = add i64 %.0, 1
  %26 = tail call noundef i64 @_ZNKSt7__cxx1112basic_stringIcSt11char_traitsIcESaIcEE4sizeEv(ptr noundef nonnull align 8 dereferenceable(32) %0) #21
  %27 = icmp ult i64 %25, %26
  br i1 %27, label %.lr.ph, label %._crit_edge, !llvm.loop !31

._crit_edge:                                      ; preds = %21, %24, %9
  %.015 = phi i64 [ -1, %9 ], [ -1, %24 ], [ %.01418, %21 ]
  ret i64 %.015
}